target datalayout = "e-m:e-p270:32:32-p271:32:32-p272:64:64-i64:64-i128:128-f80:128-n8:16:32:64-S128"
target triple = "x86_64-pc-linux-gnu"

%struct.USerializedSet = type { ptr, i32, i32, [8 x i16] }

; Function Attrs: mustprogress nounwind uwtable
define signext i8 @uset_getSerializedSet_77(ptr noundef %0, ptr noundef %1, i32 noundef %2) #3 {
  %4 = alloca i8, align 1
  %5 = alloca ptr, align 8
  %6 = alloca ptr, align 8
  %7 = alloca i32, align 4
  %8 = alloca i32, align 4
  %9 = alloca i32, align 4
  store ptr %0, ptr %5, align 8, !tbaa !49
  store ptr %1, ptr %6, align 8, !tbaa !47
  store i32 %2, ptr %7, align 4, !tbaa !3
  call void @llvm.lifetime.start.p0(i64 4, ptr %8) #7
  %10 = load ptr, ptr %5, align 8, !tbaa !49
  %11 = icmp eq ptr %10, null
  br i1 %11, label %12, label %13

12:                                               ; preds = %3
  store i8 0, ptr %4, align 1
  store i32 1, ptr %9, align 4
  br label %72

13:                                               ; preds = %3
  %14 = load ptr, ptr %6, align 8, !tbaa !47
  %15 = icmp eq ptr %14, null
  br i1 %15, label %19, label %16

16:                                               ; preds = %13
  %17 = load i32, ptr %7, align 4, !tbaa !3
  %18 = icmp sle i32 %17, 0
  br i1 %18, label %19, label %24

19:                                               ; preds = %16, %13
  %20 = load ptr, ptr %5, align 8, !tbaa !49
  %21 = getelementptr inbounds nuw %struct.USerializedSet, ptr %20, i32 0, i32 1
  store i32 0, ptr %21, align 8, !tbaa !51
  %22 = load ptr, ptr %5, align 8, !tbaa !49
  %23 = getelementptr inbounds nuw %struct.USerializedSet, ptr %22, i32 0, i32 2
  store i32 0, ptr %23, align 4, !tbaa !53
  store i8 0, ptr %4, align 1
  store i32 1, ptr %9, align 4
  br label %72

24:                                               ; preds = %16
  %25 = load ptr, ptr %6, align 8, !tbaa !47
  %26 = getelementptr inbounds nuw i16, ptr %25, i32 1
  store ptr %26, ptr %6, align 8, !tbaa !47
  %27 = load i16, ptr %25, align 2, !tbaa !54
  %28 = zext i16 %27 to i32
  store i32 %28, ptr %8, align 4, !tbaa !3
  %29 = load i32, ptr %8, align 4, !tbaa !3
  %30 = and i32 %29, 32768
  %31 = icmp ne i32 %30, 0
  br i1 %31, label %32, label %51

32:                                               ; preds = %24
  %33 = load i32, ptr %8, align 4, !tbaa !3
  %34 = and i32 %33, 32767
  store i32 %34, ptr %8, align 4, !tbaa !3
  %35 = load i32, ptr %7, align 4, !tbaa !3
  %36 = load i32, ptr %8, align 4, !tbaa !3
  %37 = add nsw i32 2, %36
  %38 = icmp slt i32 %35, %37
  br i1 %38, label %39, label %44

39:                                               ; preds = %32
  %40 = load ptr, ptr %5, align 8, !tbaa !49
  %41 = getelementptr inbounds nuw %struct.USerializedSet, ptr %40, i32 0, i32 1
  store i32 0, ptr %41, align 8, !tbaa !51
  %42 = load ptr, ptr %5, align 8, !tbaa !49
  %43 = getelementptr inbounds nuw %struct.USerializedSet, ptr %42, i32 0, i32 2
  store i32 0, ptr %43, align 4, !tbaa !53
  store i8 0, ptr %4, align 1
  store i32 1, ptr %9, align 4
  br label %72

44:                                               ; preds = %32
  %45 = load ptr, ptr %6, align 8, !tbaa !47
  %46 = getelementptr inbounds nuw i16, ptr %45, i32 1
  store ptr %46, ptr %6, align 8, !tbaa !47
  %47 = load i16, ptr %45, align 2, !tbaa !54
  %48 = zext i16 %47 to i32
  %49 = load ptr, ptr %5, align 8, !tbaa !49
  %50 = getelementptr inbounds nuw %struct.USerializedSet, ptr %49, i32 0, i32 1
  store i32 %48, ptr %50, align 8, !tbaa !51
  br label %65

51:                                               ; preds = %24
  %52 = load i32, ptr %7, align 4, !tbaa !3
  %53 = load i32, ptr %8, align 4, !tbaa !3
  %54 = add nsw i32 1, %53
  %55 = icmp slt i32 %52, %54
  br i1 %55, label %56, label %61

56:                                               ; preds = %51
  %57 = load ptr, ptr %5, align 8, !tbaa !49
  %58 = getelementptr inbounds nuw %struct.USerializedSet, ptr %57, i32 0, i32 1
  store i32 0, ptr %58, align 8, !tbaa !51
  %59 = load ptr, ptr %5, align 8, !tbaa !49
  %60 = getelementptr inbounds nuw %struct.USerializedSet, ptr %59, i32 0, i32 2
  store i32 0, ptr %60, align 4, !tbaa !53
  store i8 0, ptr %4, align 1
  store i32 1, ptr %9, align 4
  br label %72

61:                                               ; preds = %51
  %62 = load i32, ptr %8, align 4, !tbaa !3
  %63 = load ptr, ptr %5, align 8, !tbaa !49
  %64 = getelementptr inbounds nuw %struct.USerializedSet, ptr %63, i32 0, i32 1
  store i32 %62, ptr %64, align 8, !tbaa !51
  br label %65

65:                                               ; preds = %61, %44
  %66 = load ptr, ptr %6, align 8, !tbaa !47
  %67 = load ptr, ptr %5, align 8, !tbaa !49
  %68 = getelementptr inbounds nuw %struct.USerializedSet, ptr %67, i32 0, i32 0
  store ptr %66, ptr %68, align 8, !tbaa !56
  %69 = load i32, ptr %8, align 4, !tbaa !3
  %70 = load ptr, ptr %5, align 8, !tbaa !49
  %71 = getelementptr inbounds nuw %struct.USerializedSet, ptr %70, i32 0, i32 2
  store i32 %69, ptr %71, align 4, !tbaa !53
  store i8 1, ptr %4, align 1
  store i32 1, ptr %9, align 4
  br label %72

72:                                               ; preds = %65, %56, %39, %19, %12
  call void @llvm.lifetime.end.p0(i64 4, ptr %8) #7
  %73 = load i8, ptr %4, align 1
  ret i8 %73
}