; Function Attrs: mustprogress nofree norecurse nosync nounwind willreturn memory(argmem: readwrite) uwtable
define signext range(i8 0, 2) i8 @uset_getSerializedSet_77(ptr noundef writeonly %0, ptr noundef %1, i32 noundef %2) local_unnamed_addr #6 {
  %4 = icmp eq ptr %0, null
  br i1 %4, label %31, label %5

5:                                                ; preds = %3
  %6 = icmp eq ptr %1, null
  %7 = icmp slt i32 %2, 1
  %or.cond = or i1 %6, %7
  br i1 %or.cond, label %8, label %10

8:                                                ; preds = %5
  %9 = getelementptr inbounds nuw i8, ptr %0, i64 8
  store i32 0, ptr %9, align 8, !tbaa !29
  br label %.sink.split

10:                                               ; preds = %5
  %11 = getelementptr inbounds nuw i8, ptr %1, i64 2
  %12 = load i16, ptr %1, align 2, !tbaa !32
  %13 = zext i16 %12 to i32
  %.not = icmp sgt i16 %12, -1
  br i1 %.not, label %25, label %14

14:                                               ; preds = %10
  %15 = and i32 %13, 32767
  %16 = add nuw nsw i32 %15, 2
  %17 = icmp samesign ult i32 %2, %16
  br i1 %17, label %18, label %20

18:                                               ; preds = %14
  %19 = getelementptr inbounds nuw i8, ptr %0, i64 8
  store i32 0, ptr %19, align 8, !tbaa !29
  br label %.sink.split

20:                                               ; preds = %14
  %21 = getelementptr inbounds nuw i8, ptr %1, i64 4
  %22 = load i16, ptr %11, align 2, !tbaa !32
  %23 = zext i16 %22 to i32
  %24 = getelementptr inbounds nuw i8, ptr %0, i64 8
  store i32 %23, ptr %24, align 8, !tbaa !29
  br label %29

25:                                               ; preds = %10
  %.not30 = icmp samesign ugt i32 %2, %13
  %26 = getelementptr inbounds nuw i8, ptr %0, i64 8
  br i1 %.not30, label %28, label %27

27:                                               ; preds = %25
  store i32 0, ptr %26, align 8, !tbaa !29
  br label %.sink.split

28:                                               ; preds = %25
  store i32 %13, ptr %26, align 8, !tbaa !29
  br label %29

29:                                               ; preds = %28, %20
  %.026 = phi ptr [ %21, %20 ], [ %11, %28 ]
  %.0 = phi i32 [ %15, %20 ], [ %13, %28 ]
  store ptr %.026, ptr %0, align 8, !tbaa !34
  br label %.sink.split

.sink.split:                                      ; preds = %8, %18, %27, %29
  %.0.sink = phi i32 [ %.0, %29 ], [ 0, %27 ], [ 0, %18 ], [ 0, %8 ]
  %.025.ph = phi i8 [ 1, %29 ], [ 0, %27 ], [ 0, %18 ], [ 0, %8 ]
  %30 = getelementptr inbounds nuw i8, ptr %0, i64 12
  store i32 %.0.sink, ptr %30, align 4, !tbaa !35
  br label %31

31:                                               ; preds = %.sink.split, %3
  %.025 = phi i8 [ 0, %3 ], [ %.025.ph, %.sink.split ]
  ret i8 %.025
}